
code.elf:     file format elf32-avr


Disassembly of section .text:

00000000 <__vectors>:
   0:	0c 94 34 00 	jmp	0x68	; 0x68 <__ctors_end>
   4:	0c 94 51 00 	jmp	0xa2	; 0xa2 <__bad_interrupt>
   8:	0c 94 51 00 	jmp	0xa2	; 0xa2 <__bad_interrupt>
   c:	0c 94 51 00 	jmp	0xa2	; 0xa2 <__bad_interrupt>
  10:	0c 94 51 00 	jmp	0xa2	; 0xa2 <__bad_interrupt>
  14:	0c 94 51 00 	jmp	0xa2	; 0xa2 <__bad_interrupt>
  18:	0c 94 51 00 	jmp	0xa2	; 0xa2 <__bad_interrupt>
  1c:	0c 94 51 00 	jmp	0xa2	; 0xa2 <__bad_interrupt>
  20:	0c 94 51 00 	jmp	0xa2	; 0xa2 <__bad_interrupt>
  24:	0c 94 51 00 	jmp	0xa2	; 0xa2 <__bad_interrupt>
  28:	0c 94 51 00 	jmp	0xa2	; 0xa2 <__bad_interrupt>
  2c:	0c 94 51 00 	jmp	0xa2	; 0xa2 <__bad_interrupt>
  30:	0c 94 51 00 	jmp	0xa2	; 0xa2 <__bad_interrupt>
  34:	0c 94 51 00 	jmp	0xa2	; 0xa2 <__bad_interrupt>
  38:	0c 94 51 00 	jmp	0xa2	; 0xa2 <__bad_interrupt>
  3c:	0c 94 51 00 	jmp	0xa2	; 0xa2 <__bad_interrupt>
  40:	0c 94 51 00 	jmp	0xa2	; 0xa2 <__bad_interrupt>
  44:	0c 94 51 00 	jmp	0xa2	; 0xa2 <__bad_interrupt>
  48:	0c 94 51 00 	jmp	0xa2	; 0xa2 <__bad_interrupt>
  4c:	0c 94 51 00 	jmp	0xa2	; 0xa2 <__bad_interrupt>
  50:	0c 94 51 00 	jmp	0xa2	; 0xa2 <__bad_interrupt>
  54:	0c 94 51 00 	jmp	0xa2	; 0xa2 <__bad_interrupt>
  58:	0c 94 51 00 	jmp	0xa2	; 0xa2 <__bad_interrupt>
  5c:	0c 94 51 00 	jmp	0xa2	; 0xa2 <__bad_interrupt>
  60:	0c 94 51 00 	jmp	0xa2	; 0xa2 <__bad_interrupt>
  64:	0c 94 51 00 	jmp	0xa2	; 0xa2 <__bad_interrupt>

00000068 <__ctors_end>:
  68:	11 24       	eor	r1, r1
  6a:	1f be       	out	0x3f, r1	; 63
  6c:	cf ef       	ldi	r28, 0xFF	; 255
  6e:	d8 e0       	ldi	r29, 0x08	; 8
  70:	de bf       	out	0x3e, r29	; 62
  72:	cd bf       	out	0x3d, r28	; 61

00000074 <__do_copy_data>:
  74:	11 e0       	ldi	r17, 0x01	; 1
  76:	a0 e0       	ldi	r26, 0x00	; 0
  78:	b1 e0       	ldi	r27, 0x01	; 1
  7a:	e8 e6       	ldi	r30, 0x68	; 104
  7c:	fd e0       	ldi	r31, 0x0D	; 13
  7e:	02 c0       	rjmp	.+4      	; 0x84 <__do_copy_data+0x10>
  80:	05 90       	lpm	r0, Z+
  82:	0d 92       	st	X+, r0
  84:	aa 36       	cpi	r26, 0x6A	; 106
  86:	b1 07       	cpc	r27, r17
  88:	d9 f7       	brne	.-10     	; 0x80 <__do_copy_data+0xc>

0000008a <__do_clear_bss>:
  8a:	21 e0       	ldi	r18, 0x01	; 1
  8c:	aa e6       	ldi	r26, 0x6A	; 106
  8e:	b1 e0       	ldi	r27, 0x01	; 1
  90:	01 c0       	rjmp	.+2      	; 0x94 <.do_clear_bss_start>

00000092 <.do_clear_bss_loop>:
  92:	1d 92       	st	X+, r1

00000094 <.do_clear_bss_start>:
  94:	a0 38       	cpi	r26, 0x80	; 128
  96:	b2 07       	cpc	r27, r18
  98:	e1 f7       	brne	.-8      	; 0x92 <.do_clear_bss_loop>
  9a:	0e 94 89 04 	call	0x912	; 0x912 <main>
  9e:	0c 94 a9 06 	jmp	0xd52	; 0xd52 <_exit>

000000a2 <__bad_interrupt>:
  a2:	0c 94 00 00 	jmp	0	; 0x0 <__vectors>

000000a6 <scan_keypad>:
  a6:	cf 93       	push	r28
  a8:	df 93       	push	r29
  aa:	cd b7       	in	r28, 0x3d	; 61
  ac:	de b7       	in	r29, 0x3e	; 62
  ae:	2c 97       	sbiw	r28, 0x0c	; 12
  b0:	0f b6       	in	r0, 0x3f	; 63
  b2:	f8 94       	cli
  b4:	de bf       	out	0x3e, r29	; 62
  b6:	0f be       	out	0x3f, r0	; 63
  b8:	cd bf       	out	0x3d, r28	; 61
  ba:	8c e0       	ldi	r24, 0x0C	; 12
  bc:	e0 e0       	ldi	r30, 0x00	; 0
  be:	f1 e0       	ldi	r31, 0x01	; 1
  c0:	de 01       	movw	r26, r28
  c2:	11 96       	adiw	r26, 0x01	; 1
  c4:	01 90       	ld	r0, Z+
  c6:	0d 92       	st	X+, r0
  c8:	8a 95       	dec	r24
  ca:	e1 f7       	brne	.-8      	; 0xc4 <scan_keypad+0x1e>
  cc:	80 e0       	ldi	r24, 0x00	; 0
  ce:	e1 e0       	ldi	r30, 0x01	; 1
  d0:	f0 e0       	ldi	r31, 0x00	; 0
  d2:	82 30       	cpi	r24, 0x02	; 2
  d4:	e9 f5       	brne	.+122    	; 0x150 <scan_keypad+0xaa>
  d6:	5d 9a       	sbi	0x0b, 5	; 11
  d8:	50 e0       	ldi	r21, 0x00	; 0
  da:	40 e0       	ldi	r20, 0x00	; 0
  dc:	24 2f       	mov	r18, r20
  de:	69 b1       	in	r22, 0x09	; 9
  e0:	70 e0       	ldi	r23, 0x00	; 0
  e2:	04 2e       	mov	r0, r20
  e4:	02 c0       	rjmp	.+4      	; 0xea <scan_keypad+0x44>
  e6:	75 95       	asr	r23
  e8:	67 95       	ror	r22
  ea:	0a 94       	dec	r0
  ec:	e2 f7       	brpl	.-8      	; 0xe6 <scan_keypad+0x40>
  ee:	60 ff       	sbrs	r22, 0
  f0:	35 c0       	rjmp	.+106    	; 0x15c <scan_keypad+0xb6>
  f2:	af e1       	ldi	r26, 0x1F	; 31
  f4:	be e4       	ldi	r27, 0x4E	; 78
  f6:	11 97       	sbiw	r26, 0x01	; 1
  f8:	f1 f7       	brne	.-4      	; 0xf6 <scan_keypad+0x50>
  fa:	00 c0       	rjmp	.+0      	; 0xfc <scan_keypad+0x56>
  fc:	00 00       	nop
  fe:	bf 01       	movw	r22, r30
 100:	02 c0       	rjmp	.+4      	; 0x106 <scan_keypad+0x60>
 102:	66 0f       	add	r22, r22
 104:	77 1f       	adc	r23, r23
 106:	4a 95       	dec	r20
 108:	e2 f7       	brpl	.-8      	; 0x102 <scan_keypad+0x5c>
 10a:	49 b1       	in	r20, 0x09	; 9
 10c:	50 e0       	ldi	r21, 0x00	; 0
 10e:	46 23       	and	r20, r22
 110:	57 23       	and	r21, r23
 112:	45 2b       	or	r20, r21
 114:	d1 f7       	brne	.-12     	; 0x10a <scan_keypad+0x64>
 116:	9b b1       	in	r25, 0x0b	; 11
 118:	9f 71       	andi	r25, 0x1F	; 31
 11a:	9b b9       	out	0x0b, r25	; 11
 11c:	24 30       	cpi	r18, 0x04	; 4
 11e:	31 f1       	breq	.+76     	; 0x16c <scan_keypad+0xc6>
 120:	30 e0       	ldi	r19, 0x00	; 0
 122:	f9 01       	movw	r30, r18
 124:	ee 0f       	add	r30, r30
 126:	ff 1f       	adc	r31, r31
 128:	e2 0f       	add	r30, r18
 12a:	f3 1f       	adc	r31, r19
 12c:	21 e0       	ldi	r18, 0x01	; 1
 12e:	30 e0       	ldi	r19, 0x00	; 0
 130:	2c 0f       	add	r18, r28
 132:	3d 1f       	adc	r19, r29
 134:	e2 0f       	add	r30, r18
 136:	f3 1f       	adc	r31, r19
 138:	e8 0f       	add	r30, r24
 13a:	f1 1d       	adc	r31, r1
 13c:	80 81       	ld	r24, Z
 13e:	2c 96       	adiw	r28, 0x0c	; 12
 140:	0f b6       	in	r0, 0x3f	; 63
 142:	f8 94       	cli
 144:	de bf       	out	0x3e, r29	; 62
 146:	0f be       	out	0x3f, r0	; 63
 148:	cd bf       	out	0x3d, r28	; 61
 14a:	df 91       	pop	r29
 14c:	cf 91       	pop	r28
 14e:	08 95       	ret
 150:	81 30       	cpi	r24, 0x01	; 1
 152:	11 f4       	brne	.+4      	; 0x158 <scan_keypad+0xb2>
 154:	5e 9a       	sbi	0x0b, 6	; 11
 156:	c0 cf       	rjmp	.-128    	; 0xd8 <scan_keypad+0x32>
 158:	5f 9a       	sbi	0x0b, 7	; 11
 15a:	be cf       	rjmp	.-132    	; 0xd8 <scan_keypad+0x32>
 15c:	4f 5f       	subi	r20, 0xFF	; 255
 15e:	5f 4f       	sbci	r21, 0xFF	; 255
 160:	44 30       	cpi	r20, 0x04	; 4
 162:	51 05       	cpc	r21, r1
 164:	09 f0       	breq	.+2      	; 0x168 <scan_keypad+0xc2>
 166:	ba cf       	rjmp	.-140    	; 0xdc <scan_keypad+0x36>
 168:	24 e0       	ldi	r18, 0x04	; 4
 16a:	d5 cf       	rjmp	.-86     	; 0x116 <scan_keypad+0x70>
 16c:	8f 5f       	subi	r24, 0xFF	; 255
 16e:	83 30       	cpi	r24, 0x03	; 3
 170:	09 f0       	breq	.+2      	; 0x174 <scan_keypad+0xce>
 172:	af cf       	rjmp	.-162    	; 0xd2 <scan_keypad+0x2c>
 174:	80 e0       	ldi	r24, 0x00	; 0
 176:	e3 cf       	rjmp	.-58     	; 0x13e <scan_keypad+0x98>

00000178 <printInConsole>:
 178:	86 0f       	add	r24, r22
 17a:	97 1f       	adc	r25, r23
 17c:	dc 01       	movw	r26, r24
 17e:	ec 91       	ld	r30, X
 180:	e1 30       	cpi	r30, 0x01	; 1
 182:	81 f0       	breq	.+32     	; 0x1a4 <printInConsole+0x2c>
 184:	80 ed       	ldi	r24, 0xD0	; 208
 186:	8e 0f       	add	r24, r30
 188:	8a 30       	cpi	r24, 0x0A	; 10
 18a:	40 f5       	brcc	.+80     	; 0x1dc <printInConsole+0x64>
 18c:	e1 53       	subi	r30, 0x31	; 49
 18e:	8e e1       	ldi	r24, 0x1E	; 30
 190:	91 e0       	ldi	r25, 0x01	; 1
 192:	e9 30       	cpi	r30, 0x09	; 9
 194:	48 f4       	brcc	.+18     	; 0x1a8 <printInConsole+0x30>
 196:	0e 2e       	mov	r0, r30
 198:	00 0c       	add	r0, r0
 19a:	ff 0b       	sbc	r31, r31
 19c:	e5 55       	subi	r30, 0x55	; 85
 19e:	f9 4f       	sbci	r31, 0xF9	; 249
 1a0:	0c 94 ea 04 	jmp	0x9d4	; 0x9d4 <__tablejump2__>
 1a4:	8c e0       	ldi	r24, 0x0C	; 12
 1a6:	91 e0       	ldi	r25, 0x01	; 1
 1a8:	0c 94 74 04 	jmp	0x8e8	; 0x8e8 <hd44780_puts>
 1ac:	8e e0       	ldi	r24, 0x0E	; 14
 1ae:	91 e0       	ldi	r25, 0x01	; 1
 1b0:	fb cf       	rjmp	.-10     	; 0x1a8 <printInConsole+0x30>
 1b2:	80 e1       	ldi	r24, 0x10	; 16
 1b4:	91 e0       	ldi	r25, 0x01	; 1
 1b6:	f8 cf       	rjmp	.-16     	; 0x1a8 <printInConsole+0x30>
 1b8:	82 e1       	ldi	r24, 0x12	; 18
 1ba:	91 e0       	ldi	r25, 0x01	; 1
 1bc:	f5 cf       	rjmp	.-22     	; 0x1a8 <printInConsole+0x30>
 1be:	84 e1       	ldi	r24, 0x14	; 20
 1c0:	91 e0       	ldi	r25, 0x01	; 1
 1c2:	f2 cf       	rjmp	.-28     	; 0x1a8 <printInConsole+0x30>
 1c4:	86 e1       	ldi	r24, 0x16	; 22
 1c6:	91 e0       	ldi	r25, 0x01	; 1
 1c8:	ef cf       	rjmp	.-34     	; 0x1a8 <printInConsole+0x30>
 1ca:	88 e1       	ldi	r24, 0x18	; 24
 1cc:	91 e0       	ldi	r25, 0x01	; 1
 1ce:	ec cf       	rjmp	.-40     	; 0x1a8 <printInConsole+0x30>
 1d0:	8a e1       	ldi	r24, 0x1A	; 26
 1d2:	91 e0       	ldi	r25, 0x01	; 1
 1d4:	e9 cf       	rjmp	.-46     	; 0x1a8 <printInConsole+0x30>
 1d6:	8c e1       	ldi	r24, 0x1C	; 28
 1d8:	91 e0       	ldi	r25, 0x01	; 1
 1da:	e6 cf       	rjmp	.-52     	; 0x1a8 <printInConsole+0x30>
 1dc:	80 e2       	ldi	r24, 0x20	; 32
 1de:	91 e0       	ldi	r25, 0x01	; 1
 1e0:	e3 cf       	rjmp	.-58     	; 0x1a8 <printInConsole+0x30>

000001e2 <estadoLivre>:
 1e2:	0e 94 70 04 	call	0x8e0	; 0x8e0 <hd44780_clear>
 1e6:	85 e2       	ldi	r24, 0x25	; 37
 1e8:	91 e0       	ldi	r25, 0x01	; 1
 1ea:	0e 94 74 04 	call	0x8e8	; 0x8e8 <hd44780_puts>
 1ee:	2d 9a       	sbi	0x05, 5	; 5
 1f0:	2f 98       	cbi	0x05, 7	; 5
 1f2:	08 95       	ret

000001f4 <verificar>:
 1f4:	ef 92       	push	r14
 1f6:	ff 92       	push	r15
 1f8:	0f 93       	push	r16
 1fa:	1f 93       	push	r17
 1fc:	cf 93       	push	r28
 1fe:	df 93       	push	r29
 200:	eb 01       	movw	r28, r22
 202:	8a 01       	movw	r16, r20
 204:	8a 32       	cpi	r24, 0x2A	; 42
 206:	91 05       	cpc	r25, r1
 208:	09 f0       	breq	.+2      	; 0x20c <verificar+0x18>
 20a:	48 c0       	rjmp	.+144    	; 0x29c <verificar+0xa8>
 20c:	66 30       	cpi	r22, 0x06	; 6
 20e:	71 05       	cpc	r23, r1
 210:	0c f0       	brlt	.+2      	; 0x214 <verificar+0x20>
 212:	4e c0       	rjmp	.+156    	; 0x2b0 <verificar+0xbc>
 214:	81 e0       	ldi	r24, 0x01	; 1
 216:	41 37       	cpi	r20, 0x71	; 113
 218:	58 07       	cpc	r21, r24
 21a:	49 f5       	brne	.+82     	; 0x26e <verificar+0x7a>
 21c:	0e 94 70 04 	call	0x8e0	; 0x8e0 <hd44780_clear>
 220:	10 e0       	ldi	r17, 0x00	; 0
 222:	00 e0       	ldi	r16, 0x00	; 0
 224:	b8 01       	movw	r22, r16
 226:	88 e7       	ldi	r24, 0x78	; 120
 228:	91 e0       	ldi	r25, 0x01	; 1
 22a:	0e 94 bc 00 	call	0x178	; 0x178 <printInConsole>
 22e:	0f 5f       	subi	r16, 0xFF	; 255
 230:	1f 4f       	sbci	r17, 0xFF	; 255
 232:	06 30       	cpi	r16, 0x06	; 6
 234:	11 05       	cpc	r17, r1
 236:	b1 f7       	brne	.-20     	; 0x224 <verificar+0x30>
 238:	61 e0       	ldi	r22, 0x01	; 1
 23a:	81 e0       	ldi	r24, 0x01	; 1
 23c:	0e 94 81 04 	call	0x902	; 0x902 <hd44780_gotoxy>
 240:	10 e0       	ldi	r17, 0x00	; 0
 242:	00 e0       	ldi	r16, 0x00	; 0
 244:	21 97       	sbiw	r28, 0x01	; 1
 246:	0c 17       	cp	r16, r28
 248:	1d 07       	cpc	r17, r29
 24a:	4c f0       	brlt	.+18     	; 0x25e <verificar+0x6a>
 24c:	8f ef       	ldi	r24, 0xFF	; 255
 24e:	9f ef       	ldi	r25, 0xFF	; 255
 250:	df 91       	pop	r29
 252:	cf 91       	pop	r28
 254:	1f 91       	pop	r17
 256:	0f 91       	pop	r16
 258:	ff 90       	pop	r15
 25a:	ef 90       	pop	r14
 25c:	08 95       	ret
 25e:	b8 01       	movw	r22, r16
 260:	81 e7       	ldi	r24, 0x71	; 113
 262:	91 e0       	ldi	r25, 0x01	; 1
 264:	0e 94 bc 00 	call	0x178	; 0x178 <printInConsole>
 268:	0f 5f       	subi	r16, 0xFF	; 255
 26a:	1f 4f       	sbci	r17, 0xFF	; 255
 26c:	ec cf       	rjmp	.-40     	; 0x246 <verificar+0x52>
 26e:	81 e0       	ldi	r24, 0x01	; 1
 270:	48 37       	cpi	r20, 0x78	; 120
 272:	58 07       	cpc	r21, r24
 274:	19 f0       	breq	.+6      	; 0x27c <verificar+0x88>
 276:	4a 56       	subi	r20, 0x6A	; 106
 278:	51 40       	sbci	r21, 0x01	; 1
 27a:	41 f7       	brne	.-48     	; 0x24c <verificar+0x58>
 27c:	0e 94 70 04 	call	0x8e0	; 0x8e0 <hd44780_clear>
 280:	f1 2c       	mov	r15, r1
 282:	e1 2c       	mov	r14, r1
 284:	21 97       	sbiw	r28, 0x01	; 1
 286:	ec 16       	cp	r14, r28
 288:	fd 06       	cpc	r15, r29
 28a:	04 f7       	brge	.-64     	; 0x24c <verificar+0x58>
 28c:	b7 01       	movw	r22, r14
 28e:	c8 01       	movw	r24, r16
 290:	0e 94 bc 00 	call	0x178	; 0x178 <printInConsole>
 294:	8f ef       	ldi	r24, 0xFF	; 255
 296:	e8 1a       	sub	r14, r24
 298:	f8 0a       	sbc	r15, r24
 29a:	f5 cf       	rjmp	.-22     	; 0x286 <verificar+0x92>
 29c:	83 97       	sbiw	r24, 0x23	; 35
 29e:	41 f4       	brne	.+16     	; 0x2b0 <verificar+0xbc>
 2a0:	81 e0       	ldi	r24, 0x01	; 1
 2a2:	90 e0       	ldi	r25, 0x00	; 0
 2a4:	66 30       	cpi	r22, 0x06	; 6
 2a6:	71 05       	cpc	r23, r1
 2a8:	99 f6       	brne	.-90     	; 0x250 <verificar+0x5c>
 2aa:	90 e0       	ldi	r25, 0x00	; 0
 2ac:	80 e0       	ldi	r24, 0x00	; 0
 2ae:	d0 cf       	rjmp	.-96     	; 0x250 <verificar+0x5c>
 2b0:	81 e0       	ldi	r24, 0x01	; 1
 2b2:	90 e0       	ldi	r25, 0x00	; 0
 2b4:	cd cf       	rjmp	.-102    	; 0x250 <verificar+0x5c>

000002b6 <cadastrandoSenha>:
 2b6:	cf 92       	push	r12
 2b8:	df 92       	push	r13
 2ba:	ff 92       	push	r15
 2bc:	0f 93       	push	r16
 2be:	1f 93       	push	r17
 2c0:	cf 93       	push	r28
 2c2:	df 93       	push	r29
 2c4:	8b 01       	movw	r16, r22
 2c6:	d0 e0       	ldi	r29, 0x00	; 0
 2c8:	c0 e0       	ldi	r28, 0x00	; 0
 2ca:	0e 94 53 00 	call	0xa6	; 0xa6 <scan_keypad>
 2ce:	f8 2e       	mov	r15, r24
 2d0:	c8 2e       	mov	r12, r24
 2d2:	88 0f       	add	r24, r24
 2d4:	dd 08       	sbc	r13, r13
 2d6:	a8 01       	movw	r20, r16
 2d8:	be 01       	movw	r22, r28
 2da:	c6 01       	movw	r24, r12
 2dc:	0e 94 fa 00 	call	0x1f4	; 0x1f4 <verificar>
 2e0:	01 96       	adiw	r24, 0x01	; 1
 2e2:	61 f4       	brne	.+24     	; 0x2fc <cadastrandoSenha+0x46>
 2e4:	21 97       	sbiw	r28, 0x01	; 1
 2e6:	c7 30       	cpi	r28, 0x07	; 7
 2e8:	d1 05       	cpc	r29, r1
 2ea:	79 f7       	brne	.-34     	; 0x2ca <cadastrandoSenha+0x14>
 2ec:	df 91       	pop	r29
 2ee:	cf 91       	pop	r28
 2f0:	1f 91       	pop	r17
 2f2:	0f 91       	pop	r16
 2f4:	ff 90       	pop	r15
 2f6:	df 90       	pop	r13
 2f8:	cf 90       	pop	r12
 2fa:	08 95       	ret
 2fc:	a8 01       	movw	r20, r16
 2fe:	be 01       	movw	r22, r28
 300:	c6 01       	movw	r24, r12
 302:	0e 94 fa 00 	call	0x1f4	; 0x1f4 <verificar>
 306:	01 97       	sbiw	r24, 0x01	; 1
 308:	89 f7       	brne	.-30     	; 0x2ec <cadastrandoSenha+0x36>
 30a:	f8 01       	movw	r30, r16
 30c:	ec 0f       	add	r30, r28
 30e:	fd 1f       	adc	r31, r29
 310:	f0 82       	st	Z, r15
 312:	cd 28       	or	r12, r13
 314:	d1 f2       	breq	.-76     	; 0x2ca <cadastrandoSenha+0x14>
 316:	be 01       	movw	r22, r28
 318:	c8 01       	movw	r24, r16
 31a:	0e 94 bc 00 	call	0x178	; 0x178 <printInConsole>
 31e:	21 96       	adiw	r28, 0x01	; 1
 320:	e2 cf       	rjmp	.-60     	; 0x2e6 <cadastrandoSenha+0x30>

00000322 <comparandoSenhas>:
 322:	fc 01       	movw	r30, r24
 324:	db 01       	movw	r26, r22
 326:	07 96       	adiw	r24, 0x07	; 7
 328:	31 91       	ld	r19, Z+
 32a:	2d 91       	ld	r18, X+
 32c:	32 13       	cpse	r19, r18
 32e:	06 c0       	rjmp	.+12     	; 0x33c <comparandoSenhas+0x1a>
 330:	e8 17       	cp	r30, r24
 332:	f9 07       	cpc	r31, r25
 334:	c9 f7       	brne	.-14     	; 0x328 <comparandoSenhas+0x6>
 336:	81 e0       	ldi	r24, 0x01	; 1
 338:	90 e0       	ldi	r25, 0x00	; 0
 33a:	08 95       	ret
 33c:	8f ef       	ldi	r24, 0xFF	; 255
 33e:	9f ef       	ldi	r25, 0xFF	; 255
 340:	08 95       	ret

00000342 <estadoOcupado>:
 342:	0e 94 70 04 	call	0x8e0	; 0x8e0 <hd44780_clear>
 346:	84 e3       	ldi	r24, 0x34	; 52
 348:	91 e0       	ldi	r25, 0x01	; 1
 34a:	0e 94 74 04 	call	0x8e8	; 0x8e8 <hd44780_puts>
 34e:	2f 9a       	sbi	0x05, 7	; 5
 350:	2d 98       	cbi	0x05, 5	; 5
 352:	08 95       	ret

00000354 <abrir>:
 354:	cf 92       	push	r12
 356:	df 92       	push	r13
 358:	ff 92       	push	r15
 35a:	0f 93       	push	r16
 35c:	1f 93       	push	r17
 35e:	cf 93       	push	r28
 360:	df 93       	push	r29
 362:	8b 01       	movw	r16, r22
 364:	0e 94 70 04 	call	0x8e0	; 0x8e0 <hd44780_clear>
 368:	d0 e0       	ldi	r29, 0x00	; 0
 36a:	c0 e0       	ldi	r28, 0x00	; 0
 36c:	0e 94 53 00 	call	0xa6	; 0xa6 <scan_keypad>
 370:	f8 2e       	mov	r15, r24
 372:	c8 2e       	mov	r12, r24
 374:	88 0f       	add	r24, r24
 376:	dd 08       	sbc	r13, r13
 378:	a8 01       	movw	r20, r16
 37a:	be 01       	movw	r22, r28
 37c:	c6 01       	movw	r24, r12
 37e:	0e 94 fa 00 	call	0x1f4	; 0x1f4 <verificar>
 382:	01 96       	adiw	r24, 0x01	; 1
 384:	61 f4       	brne	.+24     	; 0x39e <abrir+0x4a>
 386:	21 97       	sbiw	r28, 0x01	; 1
 388:	c7 30       	cpi	r28, 0x07	; 7
 38a:	d1 05       	cpc	r29, r1
 38c:	79 f7       	brne	.-34     	; 0x36c <abrir+0x18>
 38e:	df 91       	pop	r29
 390:	cf 91       	pop	r28
 392:	1f 91       	pop	r17
 394:	0f 91       	pop	r16
 396:	ff 90       	pop	r15
 398:	df 90       	pop	r13
 39a:	cf 90       	pop	r12
 39c:	08 95       	ret
 39e:	a8 01       	movw	r20, r16
 3a0:	be 01       	movw	r22, r28
 3a2:	c6 01       	movw	r24, r12
 3a4:	0e 94 fa 00 	call	0x1f4	; 0x1f4 <verificar>
 3a8:	01 97       	sbiw	r24, 0x01	; 1
 3aa:	89 f7       	brne	.-30     	; 0x38e <abrir+0x3a>
 3ac:	f8 01       	movw	r30, r16
 3ae:	ec 0f       	add	r30, r28
 3b0:	fd 1f       	adc	r31, r29
 3b2:	f0 82       	st	Z, r15
 3b4:	cd 28       	or	r12, r13
 3b6:	d1 f2       	breq	.-76     	; 0x36c <abrir+0x18>
 3b8:	be 01       	movw	r22, r28
 3ba:	c8 01       	movw	r24, r16
 3bc:	0e 94 bc 00 	call	0x178	; 0x178 <printInConsole>
 3c0:	21 96       	adiw	r28, 0x01	; 1
 3c2:	e2 cf       	rjmp	.-60     	; 0x388 <abrir+0x34>

000003c4 <comparar>:
 3c4:	fc 01       	movw	r30, r24
 3c6:	db 01       	movw	r26, r22
 3c8:	06 96       	adiw	r24, 0x06	; 6
 3ca:	31 91       	ld	r19, Z+
 3cc:	2d 91       	ld	r18, X+
 3ce:	32 17       	cp	r19, r18
 3d0:	91 f0       	breq	.+36     	; 0x3f6 <comparar+0x32>
 3d2:	0e 94 70 04 	call	0x8e0	; 0x8e0 <hd44780_clear>
 3d6:	8b e3       	ldi	r24, 0x3B	; 59
 3d8:	91 e0       	ldi	r25, 0x01	; 1
 3da:	0e 94 74 04 	call	0x8e8	; 0x8e8 <hd44780_puts>
 3de:	2f ef       	ldi	r18, 0xFF	; 255
 3e0:	87 ea       	ldi	r24, 0xA7	; 167
 3e2:	91 e6       	ldi	r25, 0x61	; 97
 3e4:	21 50       	subi	r18, 0x01	; 1
 3e6:	80 40       	sbci	r24, 0x00	; 0
 3e8:	90 40       	sbci	r25, 0x00	; 0
 3ea:	e1 f7       	brne	.-8      	; 0x3e4 <comparar+0x20>
 3ec:	00 c0       	rjmp	.+0      	; 0x3ee <comparar+0x2a>
 3ee:	00 00       	nop
 3f0:	8f ef       	ldi	r24, 0xFF	; 255
 3f2:	9f ef       	ldi	r25, 0xFF	; 255
 3f4:	08 95       	ret
 3f6:	e8 17       	cp	r30, r24
 3f8:	f9 07       	cpc	r31, r25
 3fa:	39 f7       	brne	.-50     	; 0x3ca <comparar+0x6>
 3fc:	81 e0       	ldi	r24, 0x01	; 1
 3fe:	90 e0       	ldi	r25, 0x00	; 0
 400:	08 95       	ret

00000402 <comparandoSenhas2>:
 402:	0e 94 91 01 	call	0x322	; 0x322 <comparandoSenhas>
 406:	01 96       	adiw	r24, 0x01	; 1
 408:	89 f4       	brne	.+34     	; 0x42c <comparandoSenhas2+0x2a>
 40a:	0e 94 70 04 	call	0x8e0	; 0x8e0 <hd44780_clear>
 40e:	8b e3       	ldi	r24, 0x3B	; 59
 410:	91 e0       	ldi	r25, 0x01	; 1
 412:	0e 94 74 04 	call	0x8e8	; 0x8e8 <hd44780_puts>
 416:	8f ef       	ldi	r24, 0xFF	; 255
 418:	97 ea       	ldi	r25, 0xA7	; 167
 41a:	21 e6       	ldi	r18, 0x61	; 97
 41c:	81 50       	subi	r24, 0x01	; 1
 41e:	90 40       	sbci	r25, 0x00	; 0
 420:	20 40       	sbci	r18, 0x00	; 0
 422:	e1 f7       	brne	.-8      	; 0x41c <comparandoSenhas2+0x1a>
 424:	00 c0       	rjmp	.+0      	; 0x426 <comparandoSenhas2+0x24>
 426:	00 00       	nop
 428:	0c 94 89 04 	jmp	0x912	; 0x912 <main>
 42c:	0e 94 70 04 	call	0x8e0	; 0x8e0 <hd44780_clear>
 430:	8d e4       	ldi	r24, 0x4D	; 77
 432:	91 e0       	ldi	r25, 0x01	; 1
 434:	0e 94 74 04 	call	0x8e8	; 0x8e8 <hd44780_puts>
 438:	8f ef       	ldi	r24, 0xFF	; 255
 43a:	97 ea       	ldi	r25, 0xA7	; 167
 43c:	21 e6       	ldi	r18, 0x61	; 97
 43e:	81 50       	subi	r24, 0x01	; 1
 440:	90 40       	sbci	r25, 0x00	; 0
 442:	20 40       	sbci	r18, 0x00	; 0
 444:	e1 f7       	brne	.-8      	; 0x43e <comparandoSenhas2+0x3c>
 446:	00 c0       	rjmp	.+0      	; 0x448 <comparandoSenhas2+0x46>
 448:	00 00       	nop
 44a:	0c 94 a1 01 	jmp	0x342	; 0x342 <estadoOcupado>

0000044e <abrirCofre>:
 44e:	ef 92       	push	r14
 450:	ff 92       	push	r15
 452:	0f 93       	push	r16
 454:	1f 93       	push	r17
 456:	cf 93       	push	r28
 458:	df 93       	push	r29
 45a:	8c 01       	movw	r16, r24
 45c:	eb 01       	movw	r28, r22
 45e:	2f 98       	cbi	0x05, 7	; 5
 460:	0e 94 70 04 	call	0x8e0	; 0x8e0 <hd44780_clear>
 464:	83 e0       	ldi	r24, 0x03	; 3
 466:	e8 2e       	mov	r14, r24
 468:	f1 2c       	mov	r15, r1
 46a:	be 01       	movw	r22, r28
 46c:	c8 01       	movw	r24, r16
 46e:	0e 94 aa 01 	call	0x354	; 0x354 <abrir>
 472:	be 01       	movw	r22, r28
 474:	88 e7       	ldi	r24, 0x78	; 120
 476:	91 e0       	ldi	r25, 0x01	; 1
 478:	0e 94 e2 01 	call	0x3c4	; 0x3c4 <comparar>
 47c:	01 96       	adiw	r24, 0x01	; 1
 47e:	b9 f4       	brne	.+46     	; 0x4ae <abrirCofre+0x60>
 480:	31 e0       	ldi	r19, 0x01	; 1
 482:	e3 1a       	sub	r14, r19
 484:	f1 08       	sbc	r15, r1
 486:	89 f7       	brne	.-30     	; 0x46a <abrirCofre+0x1c>
 488:	0e 94 70 04 	call	0x8e0	; 0x8e0 <hd44780_clear>
 48c:	2f 9a       	sbi	0x05, 7	; 5
 48e:	8e e5       	ldi	r24, 0x5E	; 94
 490:	91 e0       	ldi	r25, 0x01	; 1
 492:	0e 94 74 04 	call	0x8e8	; 0x8e8 <hd44780_puts>
 496:	8f ef       	ldi	r24, 0xFF	; 255
 498:	93 eb       	ldi	r25, 0xB3	; 179
 49a:	24 ec       	ldi	r18, 0xC4	; 196
 49c:	34 e0       	ldi	r19, 0x04	; 4
 49e:	81 50       	subi	r24, 0x01	; 1
 4a0:	90 40       	sbci	r25, 0x00	; 0
 4a2:	20 40       	sbci	r18, 0x00	; 0
 4a4:	30 40       	sbci	r19, 0x00	; 0
 4a6:	d9 f7       	brne	.-10     	; 0x49e <abrirCofre+0x50>
 4a8:	00 c0       	rjmp	.+0      	; 0x4aa <abrirCofre+0x5c>
 4aa:	00 00       	nop
 4ac:	d8 cf       	rjmp	.-80     	; 0x45e <abrirCofre+0x10>
 4ae:	0e 94 70 04 	call	0x8e0	; 0x8e0 <hd44780_clear>
 4b2:	df 91       	pop	r29
 4b4:	cf 91       	pop	r28
 4b6:	1f 91       	pop	r17
 4b8:	0f 91       	pop	r16
 4ba:	ff 90       	pop	r15
 4bc:	ef 90       	pop	r14
 4be:	0c 94 89 04 	jmp	0x912	; 0x912 <main>

000004c2 <USART_Init>:
 4c2:	10 92 c5 00 	sts	0x00C5, r1	; 0x8000c5 <__TEXT_REGION_LENGTH__+0x7e00c5>
 4c6:	80 e1       	ldi	r24, 0x10	; 16
 4c8:	80 93 c4 00 	sts	0x00C4, r24	; 0x8000c4 <__TEXT_REGION_LENGTH__+0x7e00c4>
 4cc:	86 e0       	ldi	r24, 0x06	; 6
 4ce:	80 93 c2 00 	sts	0x00C2, r24	; 0x8000c2 <__TEXT_REGION_LENGTH__+0x7e00c2>
 4d2:	88 e1       	ldi	r24, 0x18	; 24
 4d4:	80 93 c1 00 	sts	0x00C1, r24	; 0x8000c1 <__TEXT_REGION_LENGTH__+0x7e00c1>
 4d8:	08 95       	ret

000004da <USART_SendByte>:
 4da:	90 91 c0 00 	lds	r25, 0x00C0	; 0x8000c0 <__TEXT_REGION_LENGTH__+0x7e00c0>
 4de:	95 ff       	sbrs	r25, 5
 4e0:	fc cf       	rjmp	.-8      	; 0x4da <USART_SendByte>
 4e2:	80 93 c6 00 	sts	0x00C6, r24	; 0x8000c6 <__TEXT_REGION_LENGTH__+0x7e00c6>
 4e6:	08 95       	ret

000004e8 <printData>:
 4e8:	90 91 c0 00 	lds	r25, 0x00C0	; 0x8000c0 <__TEXT_REGION_LENGTH__+0x7e00c0>
 4ec:	95 ff       	sbrs	r25, 5
 4ee:	fc cf       	rjmp	.-8      	; 0x4e8 <printData>
 4f0:	08 95       	ret

000004f2 <USART_ReceiveByte>:
 4f2:	80 91 c0 00 	lds	r24, 0x00C0	; 0x8000c0 <__TEXT_REGION_LENGTH__+0x7e00c0>
 4f6:	87 ff       	sbrs	r24, 7
 4f8:	fc cf       	rjmp	.-8      	; 0x4f2 <USART_ReceiveByte>
 4fa:	80 91 c6 00 	lds	r24, 0x00C6	; 0x8000c6 <__TEXT_REGION_LENGTH__+0x7e00c6>
 4fe:	08 95       	ret

00000500 <USART_puts>:
 500:	cf 93       	push	r28
 502:	df 93       	push	r29
 504:	ec 01       	movw	r28, r24
 506:	89 91       	ld	r24, Y+
 508:	81 11       	cpse	r24, r1
 50a:	05 c0       	rjmp	.+10     	; 0x516 <USART_puts+0x16>
 50c:	8a e0       	ldi	r24, 0x0A	; 10
 50e:	df 91       	pop	r29
 510:	cf 91       	pop	r28
 512:	0c 94 6d 02 	jmp	0x4da	; 0x4da <USART_SendByte>
 516:	0e 94 6d 02 	call	0x4da	; 0x4da <USART_SendByte>
 51a:	f5 cf       	rjmp	.-22     	; 0x506 <USART_puts+0x6>

0000051c <printint>:
 51c:	8f 92       	push	r8
 51e:	9f 92       	push	r9
 520:	af 92       	push	r10
 522:	bf 92       	push	r11
 524:	df 92       	push	r13
 526:	ef 92       	push	r14
 528:	ff 92       	push	r15
 52a:	0f 93       	push	r16
 52c:	1f 93       	push	r17
 52e:	cf 93       	push	r28
 530:	df 93       	push	r29
 532:	cd b7       	in	r28, 0x3d	; 61
 534:	de b7       	in	r29, 0x3e	; 62
 536:	a2 97       	sbiw	r28, 0x22	; 34
 538:	0f b6       	in	r0, 0x3f	; 63
 53a:	f8 94       	cli
 53c:	de bf       	out	0x3e, r29	; 62
 53e:	0f be       	out	0x3f, r0	; 63
 540:	cd bf       	out	0x3d, r28	; 61
 542:	6f 8f       	std	Y+31, r22	; 0x1f
 544:	78 a3       	std	Y+32, r23	; 0x20
 546:	89 a3       	std	Y+33, r24	; 0x21
 548:	9a a3       	std	Y+34, r25	; 0x22
 54a:	dc 01       	movw	r26, r24
 54c:	cb 01       	movw	r24, r22
 54e:	b7 fd       	sbrc	r27, 7
 550:	46 c0       	rjmp	.+140    	; 0x5de <printint+0xc2>
 552:	8e 01       	movw	r16, r28
 554:	0f 5f       	subi	r16, 0xFF	; 255
 556:	1f 4f       	sbci	r17, 0xFF	; 255
 558:	78 01       	movw	r14, r16
 55a:	2a e0       	ldi	r18, 0x0A	; 10
 55c:	82 2e       	mov	r8, r18
 55e:	91 2c       	mov	r9, r1
 560:	a1 2c       	mov	r10, r1
 562:	b1 2c       	mov	r11, r1
 564:	6f 8d       	ldd	r22, Y+31	; 0x1f
 566:	78 a1       	ldd	r23, Y+32	; 0x20
 568:	89 a1       	ldd	r24, Y+33	; 0x21
 56a:	9a a1       	ldd	r25, Y+34	; 0x22
 56c:	a5 01       	movw	r20, r10
 56e:	94 01       	movw	r18, r8
 570:	0e 94 cb 04 	call	0x996	; 0x996 <__divmodsi4>
 574:	6f 8f       	std	Y+31, r22	; 0x1f
 576:	78 a3       	std	Y+32, r23	; 0x20
 578:	89 a3       	std	Y+33, r24	; 0x21
 57a:	9a a3       	std	Y+34, r25	; 0x22
 57c:	f8 01       	movw	r30, r16
 57e:	0f 5f       	subi	r16, 0xFF	; 255
 580:	1f 4f       	sbci	r17, 0xFF	; 255
 582:	8f 8d       	ldd	r24, Y+31	; 0x1f
 584:	80 5d       	subi	r24, 0xD0	; 208
 586:	80 83       	st	Z, r24
 588:	2f 8f       	std	Y+31, r18	; 0x1f
 58a:	38 a3       	std	Y+32, r19	; 0x20
 58c:	49 a3       	std	Y+33, r20	; 0x21
 58e:	5a a3       	std	Y+34, r21	; 0x22
 590:	23 2b       	or	r18, r19
 592:	24 2b       	or	r18, r20
 594:	25 2b       	or	r18, r21
 596:	31 f7       	brne	.-52     	; 0x564 <printint+0x48>
 598:	d8 01       	movw	r26, r16
 59a:	1c 92       	st	X, r1
 59c:	f7 01       	movw	r30, r14
 59e:	01 50       	subi	r16, 0x01	; 1
 5a0:	11 09       	sbc	r17, r1
 5a2:	0e 17       	cp	r16, r30
 5a4:	1f 07       	cpc	r17, r31
 5a6:	08 f0       	brcs	.+2      	; 0x5aa <printint+0x8e>
 5a8:	43 c0       	rjmp	.+134    	; 0x630 <printint+0x114>
 5aa:	8e 01       	movw	r16, r28
 5ac:	0f 5f       	subi	r16, 0xFF	; 255
 5ae:	1f 4f       	sbci	r17, 0xFF	; 255
 5b0:	f8 01       	movw	r30, r16
 5b2:	81 91       	ld	r24, Z+
 5b4:	8f 01       	movw	r16, r30
 5b6:	81 11       	cpse	r24, r1
 5b8:	44 c0       	rjmp	.+136    	; 0x642 <printint+0x126>
 5ba:	a2 96       	adiw	r28, 0x22	; 34
 5bc:	0f b6       	in	r0, 0x3f	; 63
 5be:	f8 94       	cli
 5c0:	de bf       	out	0x3e, r29	; 62
 5c2:	0f be       	out	0x3f, r0	; 63
 5c4:	cd bf       	out	0x3d, r28	; 61
 5c6:	df 91       	pop	r29
 5c8:	cf 91       	pop	r28
 5ca:	1f 91       	pop	r17
 5cc:	0f 91       	pop	r16
 5ce:	ff 90       	pop	r15
 5d0:	ef 90       	pop	r14
 5d2:	df 90       	pop	r13
 5d4:	bf 90       	pop	r11
 5d6:	af 90       	pop	r10
 5d8:	9f 90       	pop	r9
 5da:	8f 90       	pop	r8
 5dc:	08 95       	ret
 5de:	8d e2       	ldi	r24, 0x2D	; 45
 5e0:	89 83       	std	Y+1, r24	; 0x01
 5e2:	8e 01       	movw	r16, r28
 5e4:	0e 5f       	subi	r16, 0xFE	; 254
 5e6:	1f 4f       	sbci	r17, 0xFF	; 255
 5e8:	78 01       	movw	r14, r16
 5ea:	8a e0       	ldi	r24, 0x0A	; 10
 5ec:	88 2e       	mov	r8, r24
 5ee:	91 2c       	mov	r9, r1
 5f0:	a1 2c       	mov	r10, r1
 5f2:	b1 2c       	mov	r11, r1
 5f4:	90 e3       	ldi	r25, 0x30	; 48
 5f6:	d9 2e       	mov	r13, r25
 5f8:	6f 8d       	ldd	r22, Y+31	; 0x1f
 5fa:	78 a1       	ldd	r23, Y+32	; 0x20
 5fc:	89 a1       	ldd	r24, Y+33	; 0x21
 5fe:	9a a1       	ldd	r25, Y+34	; 0x22
 600:	a5 01       	movw	r20, r10
 602:	94 01       	movw	r18, r8
 604:	0e 94 cb 04 	call	0x996	; 0x996 <__divmodsi4>
 608:	6f 8f       	std	Y+31, r22	; 0x1f
 60a:	78 a3       	std	Y+32, r23	; 0x20
 60c:	89 a3       	std	Y+33, r24	; 0x21
 60e:	9a a3       	std	Y+34, r25	; 0x22
 610:	f8 01       	movw	r30, r16
 612:	0f 5f       	subi	r16, 0xFF	; 255
 614:	1f 4f       	sbci	r17, 0xFF	; 255
 616:	8d 2d       	mov	r24, r13
 618:	9f 8d       	ldd	r25, Y+31	; 0x1f
 61a:	89 1b       	sub	r24, r25
 61c:	80 83       	st	Z, r24
 61e:	2f 8f       	std	Y+31, r18	; 0x1f
 620:	38 a3       	std	Y+32, r19	; 0x20
 622:	49 a3       	std	Y+33, r20	; 0x21
 624:	5a a3       	std	Y+34, r21	; 0x22
 626:	23 2b       	or	r18, r19
 628:	24 2b       	or	r18, r20
 62a:	25 2b       	or	r18, r21
 62c:	29 f7       	brne	.-54     	; 0x5f8 <printint+0xdc>
 62e:	b4 cf       	rjmp	.-152    	; 0x598 <printint+0x7c>
 630:	81 91       	ld	r24, Z+
 632:	d8 01       	movw	r26, r16
 634:	9c 91       	ld	r25, X
 636:	df 01       	movw	r26, r30
 638:	11 97       	sbiw	r26, 0x01	; 1
 63a:	9c 93       	st	X, r25
 63c:	d8 01       	movw	r26, r16
 63e:	8c 93       	st	X, r24
 640:	ae cf       	rjmp	.-164    	; 0x59e <printint+0x82>
 642:	0e 94 6d 02 	call	0x4da	; 0x4da <USART_SendByte>
 646:	b4 cf       	rjmp	.-152    	; 0x5b0 <printint+0x94>

00000648 <printhex>:
 648:	6f 92       	push	r6
 64a:	7f 92       	push	r7
 64c:	8f 92       	push	r8
 64e:	9f 92       	push	r9
 650:	af 92       	push	r10
 652:	bf 92       	push	r11
 654:	cf 92       	push	r12
 656:	df 92       	push	r13
 658:	ef 92       	push	r14
 65a:	ff 92       	push	r15
 65c:	0f 93       	push	r16
 65e:	1f 93       	push	r17
 660:	cf 93       	push	r28
 662:	df 93       	push	r29
 664:	cd b7       	in	r28, 0x3d	; 61
 666:	de b7       	in	r29, 0x3e	; 62
 668:	a2 97       	sbiw	r28, 0x22	; 34
 66a:	0f b6       	in	r0, 0x3f	; 63
 66c:	f8 94       	cli
 66e:	de bf       	out	0x3e, r29	; 62
 670:	0f be       	out	0x3f, r0	; 63
 672:	cd bf       	out	0x3d, r28	; 61
 674:	6f 8f       	std	Y+31, r22	; 0x1f
 676:	78 a3       	std	Y+32, r23	; 0x20
 678:	89 a3       	std	Y+33, r24	; 0x21
 67a:	9a a3       	std	Y+34, r25	; 0x22
 67c:	4b 01       	movw	r8, r22
 67e:	5c 01       	movw	r10, r24
 680:	bc 01       	movw	r22, r24
 682:	a4 01       	movw	r20, r8
 684:	fe 01       	movw	r30, r28
 686:	31 96       	adiw	r30, 0x01	; 1
 688:	3f 01       	movw	r6, r30
 68a:	9f 01       	movw	r18, r30
 68c:	31 96       	adiw	r30, 0x01	; 1
 68e:	6a 01       	movw	r12, r20
 690:	7b 01       	movw	r14, r22
 692:	1f e0       	ldi	r17, 0x0F	; 15
 694:	c1 22       	and	r12, r17
 696:	dd 24       	eor	r13, r13
 698:	ee 24       	eor	r14, r14
 69a:	ff 24       	eor	r15, r15
 69c:	80 e3       	ldi	r24, 0x30	; 48
 69e:	c8 0e       	add	r12, r24
 6a0:	d9 01       	movw	r26, r18
 6a2:	cc 92       	st	X, r12
 6a4:	6a 01       	movw	r12, r20
 6a6:	7b 01       	movw	r14, r22
 6a8:	94 e0       	ldi	r25, 0x04	; 4
 6aa:	76 95       	lsr	r23
 6ac:	67 95       	ror	r22
 6ae:	57 95       	ror	r21
 6b0:	47 95       	ror	r20
 6b2:	9a 95       	dec	r25
 6b4:	d1 f7       	brne	.-12     	; 0x6aa <printhex+0x62>
 6b6:	b0 e1       	ldi	r27, 0x10	; 16
 6b8:	cb 16       	cp	r12, r27
 6ba:	d1 04       	cpc	r13, r1
 6bc:	e1 04       	cpc	r14, r1
 6be:	f1 04       	cpc	r15, r1
 6c0:	20 f7       	brcc	.-56     	; 0x68a <printhex+0x42>
 6c2:	10 e1       	ldi	r17, 0x10	; 16
 6c4:	81 16       	cp	r8, r17
 6c6:	91 04       	cpc	r9, r1
 6c8:	a1 04       	cpc	r10, r1
 6ca:	b1 04       	cpc	r11, r1
 6cc:	10 f4       	brcc	.+4      	; 0x6d2 <printhex+0x8a>
 6ce:	80 83       	st	Z, r24
 6d0:	31 96       	adiw	r30, 0x01	; 1
 6d2:	10 82       	st	Z, r1
 6d4:	83 01       	movw	r16, r6
 6d6:	d3 01       	movw	r26, r6
 6d8:	31 97       	sbiw	r30, 0x01	; 1
 6da:	ea 17       	cp	r30, r26
 6dc:	fb 07       	cpc	r31, r27
 6de:	d0 f4       	brcc	.+52     	; 0x714 <printhex+0xcc>
 6e0:	d8 01       	movw	r26, r16
 6e2:	8d 91       	ld	r24, X+
 6e4:	8d 01       	movw	r16, r26
 6e6:	81 11       	cpse	r24, r1
 6e8:	20 c0       	rjmp	.+64     	; 0x72a <printhex+0xe2>
 6ea:	a2 96       	adiw	r28, 0x22	; 34
 6ec:	0f b6       	in	r0, 0x3f	; 63
 6ee:	f8 94       	cli
 6f0:	de bf       	out	0x3e, r29	; 62
 6f2:	0f be       	out	0x3f, r0	; 63
 6f4:	cd bf       	out	0x3d, r28	; 61
 6f6:	df 91       	pop	r29
 6f8:	cf 91       	pop	r28
 6fa:	1f 91       	pop	r17
 6fc:	0f 91       	pop	r16
 6fe:	ff 90       	pop	r15
 700:	ef 90       	pop	r14
 702:	df 90       	pop	r13
 704:	cf 90       	pop	r12
 706:	bf 90       	pop	r11
 708:	af 90       	pop	r10
 70a:	9f 90       	pop	r9
 70c:	8f 90       	pop	r8
 70e:	7f 90       	pop	r7
 710:	6f 90       	pop	r6
 712:	08 95       	ret
 714:	8c 91       	ld	r24, X
 716:	8a 33       	cpi	r24, 0x3A	; 58
 718:	0c f0       	brlt	.+2      	; 0x71c <printhex+0xd4>
 71a:	89 5d       	subi	r24, 0xD9	; 217
 71c:	90 81       	ld	r25, Z
 71e:	9a 33       	cpi	r25, 0x3A	; 58
 720:	0c f0       	brlt	.+2      	; 0x724 <printhex+0xdc>
 722:	99 5d       	subi	r25, 0xD9	; 217
 724:	9d 93       	st	X+, r25
 726:	80 83       	st	Z, r24
 728:	d7 cf       	rjmp	.-82     	; 0x6d8 <printhex+0x90>
 72a:	0e 94 6d 02 	call	0x4da	; 0x4da <USART_SendByte>
 72e:	d8 cf       	rjmp	.-80     	; 0x6e0 <printhex+0x98>

00000730 <print>:
 730:	cf 93       	push	r28
 732:	df 93       	push	r29
 734:	ec 01       	movw	r28, r24
 736:	89 91       	ld	r24, Y+
 738:	81 11       	cpse	r24, r1
 73a:	03 c0       	rjmp	.+6      	; 0x742 <print+0x12>
 73c:	df 91       	pop	r29
 73e:	cf 91       	pop	r28
 740:	08 95       	ret
 742:	0e 94 6d 02 	call	0x4da	; 0x4da <USART_SendByte>
 746:	f7 cf       	rjmp	.-18     	; 0x736 <print+0x6>

00000748 <printfloat>:
 748:	cf 93       	push	r28
 74a:	df 93       	push	r29
 74c:	cd b7       	in	r28, 0x3d	; 61
 74e:	de b7       	in	r29, 0x3e	; 62
 750:	28 97       	sbiw	r28, 0x08	; 8
 752:	0f b6       	in	r0, 0x3f	; 63
 754:	f8 94       	cli
 756:	de bf       	out	0x3e, r29	; 62
 758:	0f be       	out	0x3f, r0	; 63
 75a:	cd bf       	out	0x3d, r28	; 61
 75c:	69 83       	std	Y+1, r22	; 0x01
 75e:	7a 83       	std	Y+2, r23	; 0x02
 760:	8b 83       	std	Y+3, r24	; 0x03
 762:	9c 83       	std	Y+4, r25	; 0x04
 764:	0e 94 7f 05 	call	0xafe	; 0xafe <__fixunssfsi>
 768:	6d 83       	std	Y+5, r22	; 0x05
 76a:	7e 83       	std	Y+6, r23	; 0x06
 76c:	8f 83       	std	Y+7, r24	; 0x07
 76e:	98 87       	std	Y+8, r25	; 0x08
 770:	0e 94 8e 02 	call	0x51c	; 0x51c <printint>
 774:	88 e6       	ldi	r24, 0x68	; 104
 776:	91 e0       	ldi	r25, 0x01	; 1
 778:	0e 94 98 03 	call	0x730	; 0x730 <print>
 77c:	6d 81       	ldd	r22, Y+5	; 0x05
 77e:	7e 81       	ldd	r23, Y+6	; 0x06
 780:	8f 81       	ldd	r24, Y+7	; 0x07
 782:	98 85       	ldd	r25, Y+8	; 0x08
 784:	0e 94 ae 05 	call	0xb5c	; 0xb5c <__floatunsisf>
 788:	6d 83       	std	Y+5, r22	; 0x05
 78a:	7e 83       	std	Y+6, r23	; 0x06
 78c:	8f 83       	std	Y+7, r24	; 0x07
 78e:	98 87       	std	Y+8, r25	; 0x08
 790:	9b 01       	movw	r18, r22
 792:	ac 01       	movw	r20, r24
 794:	69 81       	ldd	r22, Y+1	; 0x01
 796:	7a 81       	ldd	r23, Y+2	; 0x02
 798:	8b 81       	ldd	r24, Y+3	; 0x03
 79a:	9c 81       	ldd	r25, Y+4	; 0x04
 79c:	0e 94 12 05 	call	0xa24	; 0xa24 <__subsf3>
 7a0:	69 83       	std	Y+1, r22	; 0x01
 7a2:	7a 83       	std	Y+2, r23	; 0x02
 7a4:	8b 83       	std	Y+3, r24	; 0x03
 7a6:	9c 83       	std	Y+4, r25	; 0x04
 7a8:	20 e0       	ldi	r18, 0x00	; 0
 7aa:	30 e0       	ldi	r19, 0x00	; 0
 7ac:	4a e7       	ldi	r20, 0x7A	; 122
 7ae:	54 e4       	ldi	r21, 0x44	; 68
 7b0:	0e 94 3c 06 	call	0xc78	; 0xc78 <__mulsf3>
 7b4:	69 83       	std	Y+1, r22	; 0x01
 7b6:	7a 83       	std	Y+2, r23	; 0x02
 7b8:	8b 83       	std	Y+3, r24	; 0x03
 7ba:	9c 83       	std	Y+4, r25	; 0x04
 7bc:	0e 94 7f 05 	call	0xafe	; 0xafe <__fixunssfsi>
 7c0:	69 83       	std	Y+1, r22	; 0x01
 7c2:	7a 83       	std	Y+2, r23	; 0x02
 7c4:	8b 83       	std	Y+3, r24	; 0x03
 7c6:	9c 83       	std	Y+4, r25	; 0x04
 7c8:	dc 01       	movw	r26, r24
 7ca:	cb 01       	movw	r24, r22
 7cc:	84 36       	cpi	r24, 0x64	; 100
 7ce:	91 05       	cpc	r25, r1
 7d0:	a1 05       	cpc	r26, r1
 7d2:	b1 05       	cpc	r27, r1
 7d4:	80 f4       	brcc	.+32     	; 0x7f6 <printfloat+0xae>
 7d6:	8e e1       	ldi	r24, 0x1E	; 30
 7d8:	91 e0       	ldi	r25, 0x01	; 1
 7da:	0e 94 98 03 	call	0x730	; 0x730 <print>
 7de:	89 81       	ldd	r24, Y+1	; 0x01
 7e0:	9a 81       	ldd	r25, Y+2	; 0x02
 7e2:	ab 81       	ldd	r26, Y+3	; 0x03
 7e4:	bc 81       	ldd	r27, Y+4	; 0x04
 7e6:	0a 97       	sbiw	r24, 0x0a	; 10
 7e8:	a1 05       	cpc	r26, r1
 7ea:	b1 05       	cpc	r27, r1
 7ec:	20 f4       	brcc	.+8      	; 0x7f6 <printfloat+0xae>
 7ee:	8e e1       	ldi	r24, 0x1E	; 30
 7f0:	91 e0       	ldi	r25, 0x01	; 1
 7f2:	0e 94 98 03 	call	0x730	; 0x730 <print>
 7f6:	69 81       	ldd	r22, Y+1	; 0x01
 7f8:	7a 81       	ldd	r23, Y+2	; 0x02
 7fa:	8b 81       	ldd	r24, Y+3	; 0x03
 7fc:	9c 81       	ldd	r25, Y+4	; 0x04
 7fe:	28 96       	adiw	r28, 0x08	; 8
 800:	0f b6       	in	r0, 0x3f	; 63
 802:	f8 94       	cli
 804:	de bf       	out	0x3e, r29	; 62
 806:	0f be       	out	0x3f, r0	; 63
 808:	cd bf       	out	0x3d, r28	; 61
 80a:	df 91       	pop	r29
 80c:	cf 91       	pop	r28
 80e:	0c 94 8e 02 	jmp	0x51c	; 0x51c <printint>

00000812 <mask>:
 812:	98 2f       	mov	r25, r24
 814:	88 0f       	add	r24, r24
 816:	88 0f       	add	r24, r24
 818:	88 0f       	add	r24, r24
 81a:	88 70       	andi	r24, 0x08	; 8
 81c:	91 fd       	sbrc	r25, 1
 81e:	84 60       	ori	r24, 0x04	; 4
 820:	92 fd       	sbrc	r25, 2
 822:	82 60       	ori	r24, 0x02	; 2
 824:	93 fd       	sbrc	r25, 3
 826:	81 60       	ori	r24, 0x01	; 1
 828:	08 95       	ret

0000082a <hd44780_send>:
 82a:	cf 93       	push	r28
 82c:	c8 2f       	mov	r28, r24
 82e:	88 b1       	in	r24, 0x08	; 8
 830:	80 7f       	andi	r24, 0xF0	; 240
 832:	88 b9       	out	0x08, r24	; 8
 834:	66 23       	and	r22, r22
 836:	69 f1       	breq	.+90     	; 0x892 <hd44780_send+0x68>
 838:	45 9a       	sbi	0x08, 5	; 8
 83a:	85 e0       	ldi	r24, 0x05	; 5
 83c:	8a 95       	dec	r24
 83e:	f1 f7       	brne	.-4      	; 0x83c <hd44780_send+0x12>
 840:	00 00       	nop
 842:	8c 2f       	mov	r24, r28
 844:	82 95       	swap	r24
 846:	8f 70       	andi	r24, 0x0F	; 15
 848:	0e 94 09 04 	call	0x812	; 0x812 <mask>
 84c:	98 b1       	in	r25, 0x08	; 8
 84e:	98 2b       	or	r25, r24
 850:	98 b9       	out	0x08, r25	; 8
 852:	44 9a       	sbi	0x08, 4	; 8
 854:	85 e0       	ldi	r24, 0x05	; 5
 856:	8a 95       	dec	r24
 858:	f1 f7       	brne	.-4      	; 0x856 <hd44780_send+0x2c>
 85a:	00 00       	nop
 85c:	44 98       	cbi	0x08, 4	; 8
 85e:	85 e0       	ldi	r24, 0x05	; 5
 860:	8a 95       	dec	r24
 862:	f1 f7       	brne	.-4      	; 0x860 <hd44780_send+0x36>
 864:	00 00       	nop
 866:	88 b1       	in	r24, 0x08	; 8
 868:	80 7f       	andi	r24, 0xF0	; 240
 86a:	88 b9       	out	0x08, r24	; 8
 86c:	8c 2f       	mov	r24, r28
 86e:	8f 70       	andi	r24, 0x0F	; 15
 870:	0e 94 09 04 	call	0x812	; 0x812 <mask>
 874:	98 b1       	in	r25, 0x08	; 8
 876:	98 2b       	or	r25, r24
 878:	98 b9       	out	0x08, r25	; 8
 87a:	44 9a       	sbi	0x08, 4	; 8
 87c:	85 e0       	ldi	r24, 0x05	; 5
 87e:	8a 95       	dec	r24
 880:	f1 f7       	brne	.-4      	; 0x87e <hd44780_send+0x54>
 882:	00 00       	nop
 884:	44 98       	cbi	0x08, 4	; 8
 886:	85 e0       	ldi	r24, 0x05	; 5
 888:	8a 95       	dec	r24
 88a:	f1 f7       	brne	.-4      	; 0x888 <hd44780_send+0x5e>
 88c:	00 00       	nop
 88e:	cf 91       	pop	r28
 890:	08 95       	ret
 892:	45 98       	cbi	0x08, 5	; 8
 894:	d2 cf       	rjmp	.-92     	; 0x83a <hd44780_send+0x10>

00000896 <hd44780_init>:
 896:	87 b1       	in	r24, 0x07	; 7
 898:	8f 63       	ori	r24, 0x3F	; 63
 89a:	87 b9       	out	0x07, r24	; 7
 89c:	8f e5       	ldi	r24, 0x5F	; 95
 89e:	9a ee       	ldi	r25, 0xEA	; 234
 8a0:	01 97       	sbiw	r24, 0x01	; 1
 8a2:	f1 f7       	brne	.-4      	; 0x8a0 <hd44780_init+0xa>
 8a4:	00 c0       	rjmp	.+0      	; 0x8a6 <hd44780_init+0x10>
 8a6:	00 00       	nop
 8a8:	60 e0       	ldi	r22, 0x00	; 0
 8aa:	83 e3       	ldi	r24, 0x33	; 51
 8ac:	0e 94 15 04 	call	0x82a	; 0x82a <hd44780_send>
 8b0:	60 e0       	ldi	r22, 0x00	; 0
 8b2:	83 e3       	ldi	r24, 0x33	; 51
 8b4:	0e 94 15 04 	call	0x82a	; 0x82a <hd44780_send>
 8b8:	60 e0       	ldi	r22, 0x00	; 0
 8ba:	82 e3       	ldi	r24, 0x32	; 50
 8bc:	0e 94 15 04 	call	0x82a	; 0x82a <hd44780_send>
 8c0:	60 e0       	ldi	r22, 0x00	; 0
 8c2:	88 e2       	ldi	r24, 0x28	; 40
 8c4:	0e 94 15 04 	call	0x82a	; 0x82a <hd44780_send>
 8c8:	60 e0       	ldi	r22, 0x00	; 0
 8ca:	88 e0       	ldi	r24, 0x08	; 8
 8cc:	0e 94 15 04 	call	0x82a	; 0x82a <hd44780_send>
 8d0:	60 e0       	ldi	r22, 0x00	; 0
 8d2:	8f e0       	ldi	r24, 0x0F	; 15
 8d4:	0e 94 15 04 	call	0x82a	; 0x82a <hd44780_send>
 8d8:	60 e0       	ldi	r22, 0x00	; 0
 8da:	81 e0       	ldi	r24, 0x01	; 1
 8dc:	0c 94 15 04 	jmp	0x82a	; 0x82a <hd44780_send>

000008e0 <hd44780_clear>:
 8e0:	60 e0       	ldi	r22, 0x00	; 0
 8e2:	81 e0       	ldi	r24, 0x01	; 1
 8e4:	0c 94 15 04 	jmp	0x82a	; 0x82a <hd44780_send>

000008e8 <hd44780_puts>:
 8e8:	cf 93       	push	r28
 8ea:	df 93       	push	r29
 8ec:	ec 01       	movw	r28, r24
 8ee:	89 91       	ld	r24, Y+
 8f0:	81 11       	cpse	r24, r1
 8f2:	03 c0       	rjmp	.+6      	; 0x8fa <hd44780_puts+0x12>
 8f4:	df 91       	pop	r29
 8f6:	cf 91       	pop	r28
 8f8:	08 95       	ret
 8fa:	61 e0       	ldi	r22, 0x01	; 1
 8fc:	0e 94 15 04 	call	0x82a	; 0x82a <hd44780_send>
 900:	f6 cf       	rjmp	.-20     	; 0x8ee <hd44780_puts+0x6>

00000902 <hd44780_gotoxy>:
 902:	90 ec       	ldi	r25, 0xC0	; 192
 904:	61 30       	cpi	r22, 0x01	; 1
 906:	09 f0       	breq	.+2      	; 0x90a <hd44780_gotoxy+0x8>
 908:	90 e8       	ldi	r25, 0x80	; 128
 90a:	60 e0       	ldi	r22, 0x00	; 0
 90c:	89 0f       	add	r24, r25
 90e:	0c 94 15 04 	jmp	0x82a	; 0x82a <hd44780_send>

00000912 <main>:
 912:	0e 94 61 02 	call	0x4c2	; 0x4c2 <USART_Init>
 916:	8a b1       	in	r24, 0x0a	; 10
 918:	80 7f       	andi	r24, 0xF0	; 240
 91a:	8a b9       	out	0x0a, r24	; 10
 91c:	8a b1       	in	r24, 0x0a	; 10
 91e:	80 6e       	ori	r24, 0xE0	; 224
 920:	8a b9       	out	0x0a, r24	; 10
 922:	25 9a       	sbi	0x04, 5	; 4
 924:	27 9a       	sbi	0x04, 7	; 4
 926:	20 98       	cbi	0x04, 0	; 4
 928:	28 9a       	sbi	0x05, 0	; 5
 92a:	0e 94 4b 04 	call	0x896	; 0x896 <hd44780_init>
 92e:	0e 94 f1 00 	call	0x1e2	; 0x1e2 <estadoLivre>
 932:	2f ef       	ldi	r18, 0xFF	; 255
 934:	83 e2       	ldi	r24, 0x23	; 35
 936:	94 ef       	ldi	r25, 0xF4	; 244
 938:	21 50       	subi	r18, 0x01	; 1
 93a:	80 40       	sbci	r24, 0x00	; 0
 93c:	90 40       	sbci	r25, 0x00	; 0
 93e:	e1 f7       	brne	.-8      	; 0x938 <main+0x26>
 940:	00 c0       	rjmp	.+0      	; 0x942 <main+0x30>
 942:	00 00       	nop
 944:	0e 94 70 04 	call	0x8e0	; 0x8e0 <hd44780_clear>
 948:	68 e7       	ldi	r22, 0x78	; 120
 94a:	71 e0       	ldi	r23, 0x01	; 1
 94c:	d0 e0       	ldi	r29, 0x00	; 0
 94e:	c0 e0       	ldi	r28, 0x00	; 0
 950:	ce 01       	movw	r24, r28
 952:	0e 94 5b 01 	call	0x2b6	; 0x2b6 <cadastrandoSenha>
 956:	61 e0       	ldi	r22, 0x01	; 1
 958:	81 e0       	ldi	r24, 0x01	; 1
 95a:	0e 94 81 04 	call	0x902	; 0x902 <hd44780_gotoxy>
 95e:	61 e7       	ldi	r22, 0x71	; 113
 960:	71 e0       	ldi	r23, 0x01	; 1
 962:	ce 01       	movw	r24, r28
 964:	0e 94 5b 01 	call	0x2b6	; 0x2b6 <cadastrandoSenha>
 968:	61 e7       	ldi	r22, 0x71	; 113
 96a:	71 e0       	ldi	r23, 0x01	; 1
 96c:	88 e7       	ldi	r24, 0x78	; 120
 96e:	91 e0       	ldi	r25, 0x01	; 1
 970:	0e 94 01 02 	call	0x402	; 0x402 <comparandoSenhas2>
 974:	2f ef       	ldi	r18, 0xFF	; 255
 976:	83 e2       	ldi	r24, 0x23	; 35
 978:	94 ef       	ldi	r25, 0xF4	; 244
 97a:	21 50       	subi	r18, 0x01	; 1
 97c:	80 40       	sbci	r24, 0x00	; 0
 97e:	90 40       	sbci	r25, 0x00	; 0
 980:	e1 f7       	brne	.-8      	; 0x97a <main+0x68>
 982:	00 c0       	rjmp	.+0      	; 0x984 <main+0x72>
 984:	00 00       	nop
 986:	6a e6       	ldi	r22, 0x6A	; 106
 988:	71 e0       	ldi	r23, 0x01	; 1
 98a:	ce 01       	movw	r24, r28
 98c:	0e 94 27 02 	call	0x44e	; 0x44e <abrirCofre>
 990:	90 e0       	ldi	r25, 0x00	; 0
 992:	80 e0       	ldi	r24, 0x00	; 0
 994:	08 95       	ret

00000996 <__divmodsi4>:
 996:	05 2e       	mov	r0, r21
 998:	97 fb       	bst	r25, 7
 99a:	1e f4       	brtc	.+6      	; 0x9a2 <__divmodsi4+0xc>
 99c:	00 94       	com	r0
 99e:	0e 94 e2 04 	call	0x9c4	; 0x9c4 <__negsi2>
 9a2:	57 fd       	sbrc	r21, 7
 9a4:	07 d0       	rcall	.+14     	; 0x9b4 <__divmodsi4_neg2>
 9a6:	0e 94 f0 04 	call	0x9e0	; 0x9e0 <__udivmodsi4>
 9aa:	07 fc       	sbrc	r0, 7
 9ac:	03 d0       	rcall	.+6      	; 0x9b4 <__divmodsi4_neg2>
 9ae:	4e f4       	brtc	.+18     	; 0x9c2 <__divmodsi4_exit>
 9b0:	0c 94 e2 04 	jmp	0x9c4	; 0x9c4 <__negsi2>

000009b4 <__divmodsi4_neg2>:
 9b4:	50 95       	com	r21
 9b6:	40 95       	com	r20
 9b8:	30 95       	com	r19
 9ba:	21 95       	neg	r18
 9bc:	3f 4f       	sbci	r19, 0xFF	; 255
 9be:	4f 4f       	sbci	r20, 0xFF	; 255
 9c0:	5f 4f       	sbci	r21, 0xFF	; 255

000009c2 <__divmodsi4_exit>:
 9c2:	08 95       	ret

000009c4 <__negsi2>:
 9c4:	90 95       	com	r25
 9c6:	80 95       	com	r24
 9c8:	70 95       	com	r23
 9ca:	61 95       	neg	r22
 9cc:	7f 4f       	sbci	r23, 0xFF	; 255
 9ce:	8f 4f       	sbci	r24, 0xFF	; 255
 9d0:	9f 4f       	sbci	r25, 0xFF	; 255
 9d2:	08 95       	ret

000009d4 <__tablejump2__>:
 9d4:	ee 0f       	add	r30, r30
 9d6:	ff 1f       	adc	r31, r31
 9d8:	05 90       	lpm	r0, Z+
 9da:	f4 91       	lpm	r31, Z
 9dc:	e0 2d       	mov	r30, r0
 9de:	09 94       	ijmp

000009e0 <__udivmodsi4>:
 9e0:	a1 e2       	ldi	r26, 0x21	; 33
 9e2:	1a 2e       	mov	r1, r26
 9e4:	aa 1b       	sub	r26, r26
 9e6:	bb 1b       	sub	r27, r27
 9e8:	fd 01       	movw	r30, r26
 9ea:	0d c0       	rjmp	.+26     	; 0xa06 <__udivmodsi4_ep>

000009ec <__udivmodsi4_loop>:
 9ec:	aa 1f       	adc	r26, r26
 9ee:	bb 1f       	adc	r27, r27
 9f0:	ee 1f       	adc	r30, r30
 9f2:	ff 1f       	adc	r31, r31
 9f4:	a2 17       	cp	r26, r18
 9f6:	b3 07       	cpc	r27, r19
 9f8:	e4 07       	cpc	r30, r20
 9fa:	f5 07       	cpc	r31, r21
 9fc:	20 f0       	brcs	.+8      	; 0xa06 <__udivmodsi4_ep>
 9fe:	a2 1b       	sub	r26, r18
 a00:	b3 0b       	sbc	r27, r19
 a02:	e4 0b       	sbc	r30, r20
 a04:	f5 0b       	sbc	r31, r21

00000a06 <__udivmodsi4_ep>:
 a06:	66 1f       	adc	r22, r22
 a08:	77 1f       	adc	r23, r23
 a0a:	88 1f       	adc	r24, r24
 a0c:	99 1f       	adc	r25, r25
 a0e:	1a 94       	dec	r1
 a10:	69 f7       	brne	.-38     	; 0x9ec <__udivmodsi4_loop>
 a12:	60 95       	com	r22
 a14:	70 95       	com	r23
 a16:	80 95       	com	r24
 a18:	90 95       	com	r25
 a1a:	9b 01       	movw	r18, r22
 a1c:	ac 01       	movw	r20, r24
 a1e:	bd 01       	movw	r22, r26
 a20:	cf 01       	movw	r24, r30
 a22:	08 95       	ret

00000a24 <__subsf3>:
 a24:	50 58       	subi	r21, 0x80	; 128

00000a26 <__addsf3>:
 a26:	bb 27       	eor	r27, r27
 a28:	aa 27       	eor	r26, r26
 a2a:	0e 94 2a 05 	call	0xa54	; 0xa54 <__addsf3x>
 a2e:	0c 94 02 06 	jmp	0xc04	; 0xc04 <__fp_round>
 a32:	0e 94 f4 05 	call	0xbe8	; 0xbe8 <__fp_pscA>
 a36:	38 f0       	brcs	.+14     	; 0xa46 <__addsf3+0x20>
 a38:	0e 94 fb 05 	call	0xbf6	; 0xbf6 <__fp_pscB>
 a3c:	20 f0       	brcs	.+8      	; 0xa46 <__addsf3+0x20>
 a3e:	39 f4       	brne	.+14     	; 0xa4e <__addsf3+0x28>
 a40:	9f 3f       	cpi	r25, 0xFF	; 255
 a42:	19 f4       	brne	.+6      	; 0xa4a <__addsf3+0x24>
 a44:	26 f4       	brtc	.+8      	; 0xa4e <__addsf3+0x28>
 a46:	0c 94 f1 05 	jmp	0xbe2	; 0xbe2 <__fp_nan>
 a4a:	0e f4       	brtc	.+2      	; 0xa4e <__addsf3+0x28>
 a4c:	e0 95       	com	r30
 a4e:	e7 fb       	bst	r30, 7
 a50:	0c 94 eb 05 	jmp	0xbd6	; 0xbd6 <__fp_inf>

00000a54 <__addsf3x>:
 a54:	e9 2f       	mov	r30, r25
 a56:	0e 94 13 06 	call	0xc26	; 0xc26 <__fp_split3>
 a5a:	58 f3       	brcs	.-42     	; 0xa32 <__addsf3+0xc>
 a5c:	ba 17       	cp	r27, r26
 a5e:	62 07       	cpc	r22, r18
 a60:	73 07       	cpc	r23, r19
 a62:	84 07       	cpc	r24, r20
 a64:	95 07       	cpc	r25, r21
 a66:	20 f0       	brcs	.+8      	; 0xa70 <__addsf3x+0x1c>
 a68:	79 f4       	brne	.+30     	; 0xa88 <__addsf3x+0x34>
 a6a:	a6 f5       	brtc	.+104    	; 0xad4 <__addsf3x+0x80>
 a6c:	0c 94 35 06 	jmp	0xc6a	; 0xc6a <__fp_zero>
 a70:	0e f4       	brtc	.+2      	; 0xa74 <__addsf3x+0x20>
 a72:	e0 95       	com	r30
 a74:	0b 2e       	mov	r0, r27
 a76:	ba 2f       	mov	r27, r26
 a78:	a0 2d       	mov	r26, r0
 a7a:	0b 01       	movw	r0, r22
 a7c:	b9 01       	movw	r22, r18
 a7e:	90 01       	movw	r18, r0
 a80:	0c 01       	movw	r0, r24
 a82:	ca 01       	movw	r24, r20
 a84:	a0 01       	movw	r20, r0
 a86:	11 24       	eor	r1, r1
 a88:	ff 27       	eor	r31, r31
 a8a:	59 1b       	sub	r21, r25
 a8c:	99 f0       	breq	.+38     	; 0xab4 <__addsf3x+0x60>
 a8e:	59 3f       	cpi	r21, 0xF9	; 249
 a90:	50 f4       	brcc	.+20     	; 0xaa6 <__addsf3x+0x52>
 a92:	50 3e       	cpi	r21, 0xE0	; 224
 a94:	68 f1       	brcs	.+90     	; 0xaf0 <__addsf3x+0x9c>
 a96:	1a 16       	cp	r1, r26
 a98:	f0 40       	sbci	r31, 0x00	; 0
 a9a:	a2 2f       	mov	r26, r18
 a9c:	23 2f       	mov	r18, r19
 a9e:	34 2f       	mov	r19, r20
 aa0:	44 27       	eor	r20, r20
 aa2:	58 5f       	subi	r21, 0xF8	; 248
 aa4:	f3 cf       	rjmp	.-26     	; 0xa8c <__addsf3x+0x38>
 aa6:	46 95       	lsr	r20
 aa8:	37 95       	ror	r19
 aaa:	27 95       	ror	r18
 aac:	a7 95       	ror	r26
 aae:	f0 40       	sbci	r31, 0x00	; 0
 ab0:	53 95       	inc	r21
 ab2:	c9 f7       	brne	.-14     	; 0xaa6 <__addsf3x+0x52>
 ab4:	7e f4       	brtc	.+30     	; 0xad4 <__addsf3x+0x80>
 ab6:	1f 16       	cp	r1, r31
 ab8:	ba 0b       	sbc	r27, r26
 aba:	62 0b       	sbc	r22, r18
 abc:	73 0b       	sbc	r23, r19
 abe:	84 0b       	sbc	r24, r20
 ac0:	ba f0       	brmi	.+46     	; 0xaf0 <__addsf3x+0x9c>
 ac2:	91 50       	subi	r25, 0x01	; 1
 ac4:	a1 f0       	breq	.+40     	; 0xaee <__addsf3x+0x9a>
 ac6:	ff 0f       	add	r31, r31
 ac8:	bb 1f       	adc	r27, r27
 aca:	66 1f       	adc	r22, r22
 acc:	77 1f       	adc	r23, r23
 ace:	88 1f       	adc	r24, r24
 ad0:	c2 f7       	brpl	.-16     	; 0xac2 <__addsf3x+0x6e>
 ad2:	0e c0       	rjmp	.+28     	; 0xaf0 <__addsf3x+0x9c>
 ad4:	ba 0f       	add	r27, r26
 ad6:	62 1f       	adc	r22, r18
 ad8:	73 1f       	adc	r23, r19
 ada:	84 1f       	adc	r24, r20
 adc:	48 f4       	brcc	.+18     	; 0xaf0 <__addsf3x+0x9c>
 ade:	87 95       	ror	r24
 ae0:	77 95       	ror	r23
 ae2:	67 95       	ror	r22
 ae4:	b7 95       	ror	r27
 ae6:	f7 95       	ror	r31
 ae8:	9e 3f       	cpi	r25, 0xFE	; 254
 aea:	08 f0       	brcs	.+2      	; 0xaee <__addsf3x+0x9a>
 aec:	b0 cf       	rjmp	.-160    	; 0xa4e <__addsf3+0x28>
 aee:	93 95       	inc	r25
 af0:	88 0f       	add	r24, r24
 af2:	08 f0       	brcs	.+2      	; 0xaf6 <__addsf3x+0xa2>
 af4:	99 27       	eor	r25, r25
 af6:	ee 0f       	add	r30, r30
 af8:	97 95       	ror	r25
 afa:	87 95       	ror	r24
 afc:	08 95       	ret

00000afe <__fixunssfsi>:
 afe:	0e 94 1b 06 	call	0xc36	; 0xc36 <__fp_splitA>
 b02:	88 f0       	brcs	.+34     	; 0xb26 <__fixunssfsi+0x28>
 b04:	9f 57       	subi	r25, 0x7F	; 127
 b06:	98 f0       	brcs	.+38     	; 0xb2e <__fixunssfsi+0x30>
 b08:	b9 2f       	mov	r27, r25
 b0a:	99 27       	eor	r25, r25
 b0c:	b7 51       	subi	r27, 0x17	; 23
 b0e:	b0 f0       	brcs	.+44     	; 0xb3c <__fixunssfsi+0x3e>
 b10:	e1 f0       	breq	.+56     	; 0xb4a <__fixunssfsi+0x4c>
 b12:	66 0f       	add	r22, r22
 b14:	77 1f       	adc	r23, r23
 b16:	88 1f       	adc	r24, r24
 b18:	99 1f       	adc	r25, r25
 b1a:	1a f0       	brmi	.+6      	; 0xb22 <__fixunssfsi+0x24>
 b1c:	ba 95       	dec	r27
 b1e:	c9 f7       	brne	.-14     	; 0xb12 <__fixunssfsi+0x14>
 b20:	14 c0       	rjmp	.+40     	; 0xb4a <__fixunssfsi+0x4c>
 b22:	b1 30       	cpi	r27, 0x01	; 1
 b24:	91 f0       	breq	.+36     	; 0xb4a <__fixunssfsi+0x4c>
 b26:	0e 94 35 06 	call	0xc6a	; 0xc6a <__fp_zero>
 b2a:	b1 e0       	ldi	r27, 0x01	; 1
 b2c:	08 95       	ret
 b2e:	0c 94 35 06 	jmp	0xc6a	; 0xc6a <__fp_zero>
 b32:	67 2f       	mov	r22, r23
 b34:	78 2f       	mov	r23, r24
 b36:	88 27       	eor	r24, r24
 b38:	b8 5f       	subi	r27, 0xF8	; 248
 b3a:	39 f0       	breq	.+14     	; 0xb4a <__fixunssfsi+0x4c>
 b3c:	b9 3f       	cpi	r27, 0xF9	; 249
 b3e:	cc f3       	brlt	.-14     	; 0xb32 <__fixunssfsi+0x34>
 b40:	86 95       	lsr	r24
 b42:	77 95       	ror	r23
 b44:	67 95       	ror	r22
 b46:	b3 95       	inc	r27
 b48:	d9 f7       	brne	.-10     	; 0xb40 <__fixunssfsi+0x42>
 b4a:	3e f4       	brtc	.+14     	; 0xb5a <__fixunssfsi+0x5c>
 b4c:	90 95       	com	r25
 b4e:	80 95       	com	r24
 b50:	70 95       	com	r23
 b52:	61 95       	neg	r22
 b54:	7f 4f       	sbci	r23, 0xFF	; 255
 b56:	8f 4f       	sbci	r24, 0xFF	; 255
 b58:	9f 4f       	sbci	r25, 0xFF	; 255
 b5a:	08 95       	ret

00000b5c <__floatunsisf>:
 b5c:	e8 94       	clt
 b5e:	09 c0       	rjmp	.+18     	; 0xb72 <__floatsisf+0x12>

00000b60 <__floatsisf>:
 b60:	97 fb       	bst	r25, 7
 b62:	3e f4       	brtc	.+14     	; 0xb72 <__floatsisf+0x12>
 b64:	90 95       	com	r25
 b66:	80 95       	com	r24
 b68:	70 95       	com	r23
 b6a:	61 95       	neg	r22
 b6c:	7f 4f       	sbci	r23, 0xFF	; 255
 b6e:	8f 4f       	sbci	r24, 0xFF	; 255
 b70:	9f 4f       	sbci	r25, 0xFF	; 255
 b72:	99 23       	and	r25, r25
 b74:	a9 f0       	breq	.+42     	; 0xba0 <__floatsisf+0x40>
 b76:	f9 2f       	mov	r31, r25
 b78:	96 e9       	ldi	r25, 0x96	; 150
 b7a:	bb 27       	eor	r27, r27
 b7c:	93 95       	inc	r25
 b7e:	f6 95       	lsr	r31
 b80:	87 95       	ror	r24
 b82:	77 95       	ror	r23
 b84:	67 95       	ror	r22
 b86:	b7 95       	ror	r27
 b88:	f1 11       	cpse	r31, r1
 b8a:	f8 cf       	rjmp	.-16     	; 0xb7c <__floatsisf+0x1c>
 b8c:	fa f4       	brpl	.+62     	; 0xbcc <__floatsisf+0x6c>
 b8e:	bb 0f       	add	r27, r27
 b90:	11 f4       	brne	.+4      	; 0xb96 <__floatsisf+0x36>
 b92:	60 ff       	sbrs	r22, 0
 b94:	1b c0       	rjmp	.+54     	; 0xbcc <__floatsisf+0x6c>
 b96:	6f 5f       	subi	r22, 0xFF	; 255
 b98:	7f 4f       	sbci	r23, 0xFF	; 255
 b9a:	8f 4f       	sbci	r24, 0xFF	; 255
 b9c:	9f 4f       	sbci	r25, 0xFF	; 255
 b9e:	16 c0       	rjmp	.+44     	; 0xbcc <__floatsisf+0x6c>
 ba0:	88 23       	and	r24, r24
 ba2:	11 f0       	breq	.+4      	; 0xba8 <__floatsisf+0x48>
 ba4:	96 e9       	ldi	r25, 0x96	; 150
 ba6:	11 c0       	rjmp	.+34     	; 0xbca <__floatsisf+0x6a>
 ba8:	77 23       	and	r23, r23
 baa:	21 f0       	breq	.+8      	; 0xbb4 <__floatsisf+0x54>
 bac:	9e e8       	ldi	r25, 0x8E	; 142
 bae:	87 2f       	mov	r24, r23
 bb0:	76 2f       	mov	r23, r22
 bb2:	05 c0       	rjmp	.+10     	; 0xbbe <__floatsisf+0x5e>
 bb4:	66 23       	and	r22, r22
 bb6:	71 f0       	breq	.+28     	; 0xbd4 <__floatsisf+0x74>
 bb8:	96 e8       	ldi	r25, 0x86	; 134
 bba:	86 2f       	mov	r24, r22
 bbc:	70 e0       	ldi	r23, 0x00	; 0
 bbe:	60 e0       	ldi	r22, 0x00	; 0
 bc0:	2a f0       	brmi	.+10     	; 0xbcc <__floatsisf+0x6c>
 bc2:	9a 95       	dec	r25
 bc4:	66 0f       	add	r22, r22
 bc6:	77 1f       	adc	r23, r23
 bc8:	88 1f       	adc	r24, r24
 bca:	da f7       	brpl	.-10     	; 0xbc2 <__floatsisf+0x62>
 bcc:	88 0f       	add	r24, r24
 bce:	96 95       	lsr	r25
 bd0:	87 95       	ror	r24
 bd2:	97 f9       	bld	r25, 7
 bd4:	08 95       	ret

00000bd6 <__fp_inf>:
 bd6:	97 f9       	bld	r25, 7
 bd8:	9f 67       	ori	r25, 0x7F	; 127
 bda:	80 e8       	ldi	r24, 0x80	; 128
 bdc:	70 e0       	ldi	r23, 0x00	; 0
 bde:	60 e0       	ldi	r22, 0x00	; 0
 be0:	08 95       	ret

00000be2 <__fp_nan>:
 be2:	9f ef       	ldi	r25, 0xFF	; 255
 be4:	80 ec       	ldi	r24, 0xC0	; 192
 be6:	08 95       	ret

00000be8 <__fp_pscA>:
 be8:	00 24       	eor	r0, r0
 bea:	0a 94       	dec	r0
 bec:	16 16       	cp	r1, r22
 bee:	17 06       	cpc	r1, r23
 bf0:	18 06       	cpc	r1, r24
 bf2:	09 06       	cpc	r0, r25
 bf4:	08 95       	ret

00000bf6 <__fp_pscB>:
 bf6:	00 24       	eor	r0, r0
 bf8:	0a 94       	dec	r0
 bfa:	12 16       	cp	r1, r18
 bfc:	13 06       	cpc	r1, r19
 bfe:	14 06       	cpc	r1, r20
 c00:	05 06       	cpc	r0, r21
 c02:	08 95       	ret

00000c04 <__fp_round>:
 c04:	09 2e       	mov	r0, r25
 c06:	03 94       	inc	r0
 c08:	00 0c       	add	r0, r0
 c0a:	11 f4       	brne	.+4      	; 0xc10 <__fp_round+0xc>
 c0c:	88 23       	and	r24, r24
 c0e:	52 f0       	brmi	.+20     	; 0xc24 <__fp_round+0x20>
 c10:	bb 0f       	add	r27, r27
 c12:	40 f4       	brcc	.+16     	; 0xc24 <__fp_round+0x20>
 c14:	bf 2b       	or	r27, r31
 c16:	11 f4       	brne	.+4      	; 0xc1c <__fp_round+0x18>
 c18:	60 ff       	sbrs	r22, 0
 c1a:	04 c0       	rjmp	.+8      	; 0xc24 <__fp_round+0x20>
 c1c:	6f 5f       	subi	r22, 0xFF	; 255
 c1e:	7f 4f       	sbci	r23, 0xFF	; 255
 c20:	8f 4f       	sbci	r24, 0xFF	; 255
 c22:	9f 4f       	sbci	r25, 0xFF	; 255
 c24:	08 95       	ret

00000c26 <__fp_split3>:
 c26:	57 fd       	sbrc	r21, 7
 c28:	90 58       	subi	r25, 0x80	; 128
 c2a:	44 0f       	add	r20, r20
 c2c:	55 1f       	adc	r21, r21
 c2e:	59 f0       	breq	.+22     	; 0xc46 <__fp_splitA+0x10>
 c30:	5f 3f       	cpi	r21, 0xFF	; 255
 c32:	71 f0       	breq	.+28     	; 0xc50 <__fp_splitA+0x1a>
 c34:	47 95       	ror	r20

00000c36 <__fp_splitA>:
 c36:	88 0f       	add	r24, r24
 c38:	97 fb       	bst	r25, 7
 c3a:	99 1f       	adc	r25, r25
 c3c:	61 f0       	breq	.+24     	; 0xc56 <__fp_splitA+0x20>
 c3e:	9f 3f       	cpi	r25, 0xFF	; 255
 c40:	79 f0       	breq	.+30     	; 0xc60 <__fp_splitA+0x2a>
 c42:	87 95       	ror	r24
 c44:	08 95       	ret
 c46:	12 16       	cp	r1, r18
 c48:	13 06       	cpc	r1, r19
 c4a:	14 06       	cpc	r1, r20
 c4c:	55 1f       	adc	r21, r21
 c4e:	f2 cf       	rjmp	.-28     	; 0xc34 <__fp_split3+0xe>
 c50:	46 95       	lsr	r20
 c52:	f1 df       	rcall	.-30     	; 0xc36 <__fp_splitA>
 c54:	08 c0       	rjmp	.+16     	; 0xc66 <__fp_splitA+0x30>
 c56:	16 16       	cp	r1, r22
 c58:	17 06       	cpc	r1, r23
 c5a:	18 06       	cpc	r1, r24
 c5c:	99 1f       	adc	r25, r25
 c5e:	f1 cf       	rjmp	.-30     	; 0xc42 <__fp_splitA+0xc>
 c60:	86 95       	lsr	r24
 c62:	71 05       	cpc	r23, r1
 c64:	61 05       	cpc	r22, r1
 c66:	08 94       	sec
 c68:	08 95       	ret

00000c6a <__fp_zero>:
 c6a:	e8 94       	clt

00000c6c <__fp_szero>:
 c6c:	bb 27       	eor	r27, r27
 c6e:	66 27       	eor	r22, r22
 c70:	77 27       	eor	r23, r23
 c72:	cb 01       	movw	r24, r22
 c74:	97 f9       	bld	r25, 7
 c76:	08 95       	ret

00000c78 <__mulsf3>:
 c78:	0e 94 4f 06 	call	0xc9e	; 0xc9e <__mulsf3x>
 c7c:	0c 94 02 06 	jmp	0xc04	; 0xc04 <__fp_round>
 c80:	0e 94 f4 05 	call	0xbe8	; 0xbe8 <__fp_pscA>
 c84:	38 f0       	brcs	.+14     	; 0xc94 <__mulsf3+0x1c>
 c86:	0e 94 fb 05 	call	0xbf6	; 0xbf6 <__fp_pscB>
 c8a:	20 f0       	brcs	.+8      	; 0xc94 <__mulsf3+0x1c>
 c8c:	95 23       	and	r25, r21
 c8e:	11 f0       	breq	.+4      	; 0xc94 <__mulsf3+0x1c>
 c90:	0c 94 eb 05 	jmp	0xbd6	; 0xbd6 <__fp_inf>
 c94:	0c 94 f1 05 	jmp	0xbe2	; 0xbe2 <__fp_nan>
 c98:	11 24       	eor	r1, r1
 c9a:	0c 94 36 06 	jmp	0xc6c	; 0xc6c <__fp_szero>

00000c9e <__mulsf3x>:
 c9e:	0e 94 13 06 	call	0xc26	; 0xc26 <__fp_split3>
 ca2:	70 f3       	brcs	.-36     	; 0xc80 <__mulsf3+0x8>

00000ca4 <__mulsf3_pse>:
 ca4:	95 9f       	mul	r25, r21
 ca6:	c1 f3       	breq	.-16     	; 0xc98 <__mulsf3+0x20>
 ca8:	95 0f       	add	r25, r21
 caa:	50 e0       	ldi	r21, 0x00	; 0
 cac:	55 1f       	adc	r21, r21
 cae:	62 9f       	mul	r22, r18
 cb0:	f0 01       	movw	r30, r0
 cb2:	72 9f       	mul	r23, r18
 cb4:	bb 27       	eor	r27, r27
 cb6:	f0 0d       	add	r31, r0
 cb8:	b1 1d       	adc	r27, r1
 cba:	63 9f       	mul	r22, r19
 cbc:	aa 27       	eor	r26, r26
 cbe:	f0 0d       	add	r31, r0
 cc0:	b1 1d       	adc	r27, r1
 cc2:	aa 1f       	adc	r26, r26
 cc4:	64 9f       	mul	r22, r20
 cc6:	66 27       	eor	r22, r22
 cc8:	b0 0d       	add	r27, r0
 cca:	a1 1d       	adc	r26, r1
 ccc:	66 1f       	adc	r22, r22
 cce:	82 9f       	mul	r24, r18
 cd0:	22 27       	eor	r18, r18
 cd2:	b0 0d       	add	r27, r0
 cd4:	a1 1d       	adc	r26, r1
 cd6:	62 1f       	adc	r22, r18
 cd8:	73 9f       	mul	r23, r19
 cda:	b0 0d       	add	r27, r0
 cdc:	a1 1d       	adc	r26, r1
 cde:	62 1f       	adc	r22, r18
 ce0:	83 9f       	mul	r24, r19
 ce2:	a0 0d       	add	r26, r0
 ce4:	61 1d       	adc	r22, r1
 ce6:	22 1f       	adc	r18, r18
 ce8:	74 9f       	mul	r23, r20
 cea:	33 27       	eor	r19, r19
 cec:	a0 0d       	add	r26, r0
 cee:	61 1d       	adc	r22, r1
 cf0:	23 1f       	adc	r18, r19
 cf2:	84 9f       	mul	r24, r20
 cf4:	60 0d       	add	r22, r0
 cf6:	21 1d       	adc	r18, r1
 cf8:	82 2f       	mov	r24, r18
 cfa:	76 2f       	mov	r23, r22
 cfc:	6a 2f       	mov	r22, r26
 cfe:	11 24       	eor	r1, r1
 d00:	9f 57       	subi	r25, 0x7F	; 127
 d02:	50 40       	sbci	r21, 0x00	; 0
 d04:	9a f0       	brmi	.+38     	; 0xd2c <__mulsf3_pse+0x88>
 d06:	f1 f0       	breq	.+60     	; 0xd44 <__mulsf3_pse+0xa0>
 d08:	88 23       	and	r24, r24
 d0a:	4a f0       	brmi	.+18     	; 0xd1e <__mulsf3_pse+0x7a>
 d0c:	ee 0f       	add	r30, r30
 d0e:	ff 1f       	adc	r31, r31
 d10:	bb 1f       	adc	r27, r27
 d12:	66 1f       	adc	r22, r22
 d14:	77 1f       	adc	r23, r23
 d16:	88 1f       	adc	r24, r24
 d18:	91 50       	subi	r25, 0x01	; 1
 d1a:	50 40       	sbci	r21, 0x00	; 0
 d1c:	a9 f7       	brne	.-22     	; 0xd08 <__mulsf3_pse+0x64>
 d1e:	9e 3f       	cpi	r25, 0xFE	; 254
 d20:	51 05       	cpc	r21, r1
 d22:	80 f0       	brcs	.+32     	; 0xd44 <__mulsf3_pse+0xa0>
 d24:	0c 94 eb 05 	jmp	0xbd6	; 0xbd6 <__fp_inf>
 d28:	0c 94 36 06 	jmp	0xc6c	; 0xc6c <__fp_szero>
 d2c:	5f 3f       	cpi	r21, 0xFF	; 255
 d2e:	e4 f3       	brlt	.-8      	; 0xd28 <__mulsf3_pse+0x84>
 d30:	98 3e       	cpi	r25, 0xE8	; 232
 d32:	d4 f3       	brlt	.-12     	; 0xd28 <__mulsf3_pse+0x84>
 d34:	86 95       	lsr	r24
 d36:	77 95       	ror	r23
 d38:	67 95       	ror	r22
 d3a:	b7 95       	ror	r27
 d3c:	f7 95       	ror	r31
 d3e:	e7 95       	ror	r30
 d40:	9f 5f       	subi	r25, 0xFF	; 255
 d42:	c1 f7       	brne	.-16     	; 0xd34 <__mulsf3_pse+0x90>
 d44:	fe 2b       	or	r31, r30
 d46:	88 0f       	add	r24, r24
 d48:	91 1d       	adc	r25, r1
 d4a:	96 95       	lsr	r25
 d4c:	87 95       	ror	r24
 d4e:	97 f9       	bld	r25, 7
 d50:	08 95       	ret

00000d52 <_exit>:
 d52:	f8 94       	cli

00000d54 <__stop_program>:
 d54:	ff cf       	rjmp	.-2      	; 0xd54 <__stop_program>
 d56:	d2 00       	.word	0x00d2	; ????
 d58:	d6 00       	.word	0x00d6	; ????
 d5a:	d9 00       	.word	0x00d9	; ????
 d5c:	dc 00       	.word	0x00dc	; ????
 d5e:	df 00       	.word	0x00df	; ????
 d60:	e2 00       	.word	0x00e2	; ????
 d62:	e5 00       	.word	0x00e5	; ????
 d64:	e8 00       	.word	0x00e8	; ????
 d66:	eb 00       	.word	0x00eb	; ????
